; Function Attrs: mustprogress uwtable
define noundef i32 @cvscript_colvar_get(ptr noundef %0, i32 noundef %1, ptr noundef %2) local_unnamed_addr #0 personality ptr @__gxx_personality_v0 {
  %4 = tail call noundef ptr @_ZN12colvarmodule4mainEv()
  %5 = load ptr, ptr @_ZN12colvarmodule5proxyE, align 8
  %6 = getelementptr inbounds i8, ptr %5, i64 808
  %7 = load ptr, ptr %6, align 8
  %8 = tail call noundef i32 @_ZN12colvarscript16clear_str_resultEv(ptr noundef nonnull align 8 dereferenceable(304) %7)
  %9 = tail call noundef i32 @_ZN12colvarscript15check_cmd_nargsILNS_11Object_typeE1EEEiPKciii(ptr noundef nonnull align 8 dereferenceable(304) %7, ptr noundef nonnull @.str.28, i32 noundef %1, i32 noundef 1, i32 noundef 1)
  %.not = icmp eq i32 %9, 0
  br i1 %.not, label %10, label %15

10:                                               ; preds = %3
  %11 = icmp eq ptr %0, null
  %12 = getelementptr inbounds i8, ptr %0, i64 320
  %13 = select i1 %11, ptr null, ptr %12
  %14 = tail call noundef i32 @_ZN12colvarscript13proc_featuresEP10colvardepsiPKPh(ptr noundef nonnull align 8 dereferenceable(304) %7, ptr noundef %13, i32 noundef %1, ptr noundef %2)
  br label %15

15:                                               ; preds = %3, %10
  %.0 = phi i32 [ %14, %10 ], [ -1, %3 ]
  ret i32 %.0
}